target datalayout = "e-m:e-p270:32:32-p271:32:32-p272:64:64-i64:64-i128:128-f80:128-n8:16:32:64-S128"
target triple = "x86_64-pc-linux-gnu"

%struct.cache_t = type { %union.pthread_mutex_t, ptr, %struct.cache_head, i64, i32, i32, i32, i32 }
%union.pthread_mutex_t = type { %struct.__pthread_mutex_s }
%struct.__pthread_mutex_s = type { i32, i32, i32, i32, i32, i16, i16, %struct.__pthread_internal_list }
%struct.__pthread_internal_list = type { ptr, ptr }
%struct.cache_head = type { ptr, ptr }

@.str.60 = private unnamed_addr constant [5 x i8] c"test\00", align 1
@.str.61 = private unnamed_addr constant [14 x i8] c"cache != NULL\00", align 1
@.str.62 = private unnamed_addr constant [10 x i8] c"testapp.c\00", align 1
@__PRETTY_FUNCTION__.cache_limit_revised_downward_test = private unnamed_addr constant [57 x i8] c"enum test_return cache_limit_revised_downward_test(void)\00", align 1
@.str.66 = private unnamed_addr constant [22 x i8] c"alloc_objs[i] != NULL\00", align 1
@.str.67 = private unnamed_addr constant [30 x i8] c"cache->total == allocated_num\00", align 1
@.str.68 = private unnamed_addr constant [32 x i8] c"cache->total == allocated_num-1\00", align 1

; Function Attrs: nounwind uwtable
define internal i32 @cache_limit_revised_downward_test() #0 {
  %1 = alloca i32, align 4
  %2 = alloca i32, align 4
  %3 = alloca i32, align 4
  %4 = alloca ptr, align 8
  %5 = alloca ptr, align 8
  call void @llvm.lifetime.start.p0(i64 4, ptr %1) #12
  store i32 10, ptr %1, align 4, !tbaa !10
  call void @llvm.lifetime.start.p0(i64 4, ptr %2) #12
  %6 = load i32, ptr %1, align 4, !tbaa !10
  %7 = add nsw i32 %6, 1
  store i32 %7, ptr %2, align 4, !tbaa !10
  call void @llvm.lifetime.start.p0(i64 4, ptr %3) #12
  call void @llvm.lifetime.start.p0(i64 8, ptr %4) #12
  %8 = load i32, ptr %2, align 4, !tbaa !10
  %9 = sext i32 %8 to i64
  %10 = call noalias ptr @calloc(i64 noundef %9, i64 noundef 8) #14
  store ptr %10, ptr %4, align 8, !tbaa !15
  call void @llvm.lifetime.start.p0(i64 8, ptr %5) #12
  %11 = call ptr @cache_create(ptr noundef @.str.60, i64 noundef 4, i64 noundef 8)
  store ptr %11, ptr %5, align 8, !tbaa !4
  %12 = load ptr, ptr %5, align 8, !tbaa !4
  %13 = icmp ne ptr %12, null
  br i1 %13, label %14, label %15

14:                                               ; preds = %0
  br label %16

15:                                               ; preds = %0
  call void @__assert_fail(ptr noundef @.str.61, ptr noundef @.str.62, i32 noundef 202, ptr noundef @__PRETTY_FUNCTION__.cache_limit_revised_downward_test) #13
  unreachable

16:                                               ; preds = %14
  store i32 0, ptr %3, align 4, !tbaa !10
  br label %17

17:                                               ; preds = %37, %16
  %18 = load i32, ptr %3, align 4, !tbaa !10
  %19 = load i32, ptr %2, align 4, !tbaa !10
  %20 = icmp slt i32 %18, %19
  br i1 %20, label %21, label %40

21:                                               ; preds = %17
  %22 = load ptr, ptr %5, align 8, !tbaa !4
  %23 = call ptr @cache_alloc(ptr noundef %22)
  %24 = load ptr, ptr %4, align 8, !tbaa !15
  %25 = load i32, ptr %3, align 4, !tbaa !10
  %26 = sext i32 %25 to i64
  %27 = getelementptr inbounds ptr, ptr %24, i64 %26
  store ptr %23, ptr %27, align 8, !tbaa !8
  %28 = load ptr, ptr %4, align 8, !tbaa !15
  %29 = load i32, ptr %3, align 4, !tbaa !10
  %30 = sext i32 %29 to i64
  %31 = getelementptr inbounds ptr, ptr %28, i64 %30
  %32 = load ptr, ptr %31, align 8, !tbaa !8
  %33 = icmp ne ptr %32, null
  br i1 %33, label %34, label %35

34:                                               ; preds = %21
  br label %36

35:                                               ; preds = %21
  call void @__assert_fail(ptr noundef @.str.66, ptr noundef @.str.62, i32 noundef 207, ptr noundef @__PRETTY_FUNCTION__.cache_limit_revised_downward_test) #13
  unreachable

36:                                               ; preds = %34
  br label %37

37:                                               ; preds = %36
  %38 = load i32, ptr %3, align 4, !tbaa !10
  %39 = add nsw i32 %38, 1
  store i32 %39, ptr %3, align 4, !tbaa !10
  br label %17, !llvm.loop !17

40:                                               ; preds = %17
  %41 = load ptr, ptr %5, align 8, !tbaa !4
  %42 = getelementptr inbounds nuw %struct.cache_t, ptr %41, i32 0, i32 5
  %43 = load i32, ptr %42, align 4, !tbaa !18
  %44 = load i32, ptr %2, align 4, !tbaa !10
  %45 = icmp eq i32 %43, %44
  br i1 %45, label %46, label %47

46:                                               ; preds = %40
  br label %48

47:                                               ; preds = %40
  call void @__assert_fail(ptr noundef @.str.67, ptr noundef @.str.62, i32 noundef 209, ptr noundef @__PRETTY_FUNCTION__.cache_limit_revised_downward_test) #13
  unreachable

48:                                               ; preds = %46
  %49 = load ptr, ptr %5, align 8, !tbaa !4
  %50 = load i32, ptr %1, align 4, !tbaa !10
  call void @cache_set_limit(ptr noundef %49, i32 noundef %50)
  %51 = load ptr, ptr %5, align 8, !tbaa !4
  %52 = load ptr, ptr %4, align 8, !tbaa !15
  %53 = getelementptr inbounds ptr, ptr %52, i64 0
  %54 = load ptr, ptr %53, align 8, !tbaa !8
  call void @cache_free(ptr noundef %51, ptr noundef %54)
  %55 = load ptr, ptr %5, align 8, !tbaa !4
  %56 = getelementptr inbounds nuw %struct.cache_t, ptr %55, i32 0, i32 5
  %57 = load i32, ptr %56, align 4, !tbaa !18
  %58 = load i32, ptr %2, align 4, !tbaa !10
  %59 = sub nsw i32 %58, 1
  %60 = icmp eq i32 %57, %59
  br i1 %60, label %61, label %62

61:                                               ; preds = %48
  br label %63

62:                                               ; preds = %48
  call void @__assert_fail(ptr noundef @.str.68, ptr noundef @.str.62, i32 noundef 217, ptr noundef @__PRETTY_FUNCTION__.cache_limit_revised_downward_test) #13
  unreachable

63:                                               ; preds = %61
  %64 = load ptr, ptr %5, align 8, !tbaa !4
  call void @cache_destroy(ptr noundef %64)
  %65 = load ptr, ptr %4, align 8, !tbaa !15
  call void @free(ptr noundef %65) #12
  call void @llvm.lifetime.end.p0(i64 8, ptr %5) #12
  call void @llvm.lifetime.end.p0(i64 8, ptr %4) #12
  call void @llvm.lifetime.end.p0(i64 4, ptr %3) #12
  call void @llvm.lifetime.end.p0(i64 4, ptr %2) #12
  call void @llvm.lifetime.end.p0(i64 4, ptr %1) #12
  ret i32 1
}