; Function Attrs: nounwind uwtable
define internal noundef i32 @cache_limit_revised_downward_test() #0 {
  %1 = tail call noalias dereferenceable_or_null(88) ptr @calloc(i64 noundef 11, i64 noundef 8) #23
  %2 = tail call ptr @cache_create(ptr noundef nonnull @.str.60, i64 noundef 4, i64 noundef 8) #21
  %.not = icmp eq ptr %2, null
  br i1 %.not, label %3, label %.preheader

3:                                                ; preds = %0
  tail call void @__assert_fail(ptr noundef nonnull @.str.61, ptr noundef nonnull @.str.62, i32 noundef 202, ptr noundef nonnull @__PRETTY_FUNCTION__.cache_limit_revised_downward_test) #22
  unreachable

4:                                                ; preds = %.preheader
  %indvars.iv.next = add nuw nsw i64 %indvars.iv, 1
  %exitcond.not = icmp eq i64 %indvars.iv.next, 11
  br i1 %exitcond.not, label %8, label %.preheader, !llvm.loop !11

.preheader:                                       ; preds = %0, %4
  %indvars.iv = phi i64 [ %indvars.iv.next, %4 ], [ 0, %0 ]
  %5 = tail call ptr @cache_alloc(ptr noundef nonnull %2) #21
  %6 = getelementptr inbounds nuw ptr, ptr %1, i64 %indvars.iv
  store ptr %5, ptr %6, align 8, !tbaa !12
  %.not21 = icmp eq ptr %5, null
  br i1 %.not21, label %7, label %4

7:                                                ; preds = %.preheader
  tail call void @__assert_fail(ptr noundef nonnull @.str.66, ptr noundef nonnull @.str.62, i32 noundef 207, ptr noundef nonnull @__PRETTY_FUNCTION__.cache_limit_revised_downward_test) #22
  unreachable

8:                                                ; preds = %4
  %9 = getelementptr inbounds nuw i8, ptr %2, i64 76
  %10 = load i32, ptr %9, align 4, !tbaa !15
  %11 = icmp eq i32 %10, 11
  br i1 %11, label %13, label %12

12:                                               ; preds = %8
  tail call void @__assert_fail(ptr noundef nonnull @.str.67, ptr noundef nonnull @.str.62, i32 noundef 209, ptr noundef nonnull @__PRETTY_FUNCTION__.cache_limit_revised_downward_test) #22
  unreachable

13:                                               ; preds = %8
  tail call void @cache_set_limit(ptr noundef nonnull %2, i32 noundef 10) #21
  %14 = load ptr, ptr %1, align 8, !tbaa !12
  tail call void @cache_free(ptr noundef nonnull %2, ptr noundef %14) #21
  %15 = load i32, ptr %9, align 4, !tbaa !15
  %16 = icmp eq i32 %15, 10
  br i1 %16, label %18, label %17

17:                                               ; preds = %13
  tail call void @__assert_fail(ptr noundef nonnull @.str.68, ptr noundef nonnull @.str.62, i32 noundef 217, ptr noundef nonnull @__PRETTY_FUNCTION__.cache_limit_revised_downward_test) #22
  unreachable

18:                                               ; preds = %13
  tail call void @cache_destroy(ptr noundef nonnull %2) #21
  tail call void @free(ptr noundef nonnull %1) #21
  ret i32 1
}